target datalayout = "e-m:e-p270:32:32-p271:32:32-p272:64:64-i64:64-i128:128-f80:128-n8:16:32:64-S128"
target triple = "x86_64-pc-linux-gnu"

@.str.1 = private unnamed_addr constant [27 x i8] c"../openssl/apps/lib/apps.c\00", align 1
@.str.4 = private unnamed_addr constant [10 x i8] c"<unknown>\00", align 1
@bio_err = external global ptr, align 8
@.str.5 = private unnamed_addr constant [31 x i8] c"Error getting password for %s\0A\00", align 1
@.str.6 = private unnamed_addr constant [57 x i8] c"Trying plain input string (better precede with 'pass:')\0A\00", align 1
@.str.7 = private unnamed_addr constant [39 x i8] c"Out of memory getting password for %s\0A\00", align 1
@.str.18 = private unnamed_addr constant [12 x i8] c"certificate\00", align 1
@.str.19 = private unnamed_addr constant [9 x i8] c"https://\00", align 1
@.str.21 = private unnamed_addr constant [8 x i8] c"http://\00", align 1
@.str.33 = private unnamed_addr constant [13 x i8] c"certificates\00", align 1
@.str.34 = private unnamed_addr constant [42 x i8] c"error: HTTP retrieval not allowed for %s\0A\00", align 1

; Function Attrs: inlinehint nounwind uwtable
define internal ptr @ossl_check_const_X509_sk_type(ptr noundef %0) #5 {
  %2 = alloca ptr, align 8
  store ptr %0, ptr %2, align 8, !tbaa !69
  %3 = load ptr, ptr %2, align 8, !tbaa !69
  ret ptr %3
}

; Function Attrs: nounwind uwtable
define dso_local i32 @app_passwd(ptr noundef %0, ptr noundef %1, ptr noundef %2, ptr noundef %3) #0 {
  %5 = alloca i32, align 4
  %6 = alloca ptr, align 8
  %7 = alloca ptr, align 8
  %8 = alloca ptr, align 8
  %9 = alloca ptr, align 8
  %10 = alloca i32, align 4
  %11 = alloca i32, align 4
  store ptr %0, ptr %6, align 8, !tbaa !9
  store ptr %1, ptr %7, align 8, !tbaa !9
  store ptr %2, ptr %8, align 8, !tbaa !24
  store ptr %3, ptr %9, align 8, !tbaa !24
  call void @llvm.lifetime.start.p0(i64 4, ptr %10) #12
  %12 = load ptr, ptr %6, align 8, !tbaa !9
  %13 = icmp ne ptr %12, null
  br i1 %13, label %14, label %22

14:                                               ; preds = %4
  %15 = load ptr, ptr %7, align 8, !tbaa !9
  %16 = icmp ne ptr %15, null
  br i1 %16, label %17, label %22

17:                                               ; preds = %14
  %18 = load ptr, ptr %6, align 8, !tbaa !9
  %19 = load ptr, ptr %7, align 8, !tbaa !9
  %20 = call i32 @strcmp(ptr noundef %18, ptr noundef %19) #14
  %21 = icmp eq i32 %20, 0
  br label %22

22:                                               ; preds = %17, %14, %4
  %23 = phi i1 [ false, %14 ], [ false, %4 ], [ %21, %17 ]
  %24 = zext i1 %23 to i32
  store i32 %24, ptr %10, align 4, !tbaa !25
  %25 = load ptr, ptr %6, align 8, !tbaa !9
  %26 = icmp ne ptr %25, null
  br i1 %26, label %27, label %37

27:                                               ; preds = %22
  %28 = load ptr, ptr %6, align 8, !tbaa !9
  %29 = load i32, ptr %10, align 4, !tbaa !25
  %30 = call ptr @app_get_pass(ptr noundef %28, i32 noundef %29)
  %31 = load ptr, ptr %8, align 8, !tbaa !24
  store ptr %30, ptr %31, align 8, !tbaa !9
  %32 = load ptr, ptr %8, align 8, !tbaa !24
  %33 = load ptr, ptr %32, align 8, !tbaa !9
  %34 = icmp eq ptr %33, null
  br i1 %34, label %35, label %36

35:                                               ; preds = %27
  store i32 0, ptr %5, align 4
  store i32 1, ptr %11, align 4
  br label %65

36:                                               ; preds = %27
  br label %43

37:                                               ; preds = %22
  %38 = load ptr, ptr %8, align 8, !tbaa !24
  %39 = icmp ne ptr %38, null
  br i1 %39, label %40, label %42

40:                                               ; preds = %37
  %41 = load ptr, ptr %8, align 8, !tbaa !24
  store ptr null, ptr %41, align 8, !tbaa !9
  br label %42

42:                                               ; preds = %40, %37
  br label %43

43:                                               ; preds = %42, %36
  %44 = load ptr, ptr %7, align 8, !tbaa !9
  %45 = icmp ne ptr %44, null
  br i1 %45, label %46, label %58

46:                                               ; preds = %43
  %47 = load ptr, ptr %7, align 8, !tbaa !9
  %48 = load i32, ptr %10, align 4, !tbaa !25
  %49 = icmp ne i32 %48, 0
  %50 = select i1 %49, i32 2, i32 0
  %51 = call ptr @app_get_pass(ptr noundef %47, i32 noundef %50)
  %52 = load ptr, ptr %9, align 8, !tbaa !24
  store ptr %51, ptr %52, align 8, !tbaa !9
  %53 = load ptr, ptr %9, align 8, !tbaa !24
  %54 = load ptr, ptr %53, align 8, !tbaa !9
  %55 = icmp eq ptr %54, null
  br i1 %55, label %56, label %57

56:                                               ; preds = %46
  store i32 0, ptr %5, align 4
  store i32 1, ptr %11, align 4
  br label %65

57:                                               ; preds = %46
  br label %64

58:                                               ; preds = %43
  %59 = load ptr, ptr %9, align 8, !tbaa !24
  %60 = icmp ne ptr %59, null
  br i1 %60, label %61, label %63

61:                                               ; preds = %58
  %62 = load ptr, ptr %9, align 8, !tbaa !24
  store ptr null, ptr %62, align 8, !tbaa !9
  br label %63

63:                                               ; preds = %61, %58
  br label %64

64:                                               ; preds = %63, %57
  store i32 1, ptr %5, align 4
  store i32 1, ptr %11, align 4
  br label %65

65:                                               ; preds = %64, %56, %35
  call void @llvm.lifetime.end.p0(i64 4, ptr %10) #12
  %66 = load i32, ptr %5, align 4
  ret i32 %66
}

; Function Attrs: nounwind uwtable
define internal void @warn_certs(ptr noundef %0, ptr noundef %1, i32 noundef %2, ptr noundef %3) #0 {
  %5 = alloca ptr, align 8
  %6 = alloca ptr, align 8
  %7 = alloca i32, align 4
  %8 = alloca ptr, align 8
  %9 = alloca i32, align 4
  store ptr %0, ptr %5, align 8, !tbaa !9
  store ptr %1, ptr %6, align 8, !tbaa !69
  store i32 %2, ptr %7, align 4, !tbaa !25
  store ptr %3, ptr %8, align 8, !tbaa !90
  call void @llvm.lifetime.start.p0(i64 4, ptr %9) #12
  store i32 0, ptr %9, align 4, !tbaa !25
  br label %10

10:                                               ; preds = %24, %4
  %11 = load i32, ptr %9, align 4, !tbaa !25
  %12 = load ptr, ptr %6, align 8, !tbaa !69
  %13 = call ptr @ossl_check_const_X509_sk_type(ptr noundef %12)
  %14 = call i32 @OPENSSL_sk_num(ptr noundef %13)
  %15 = icmp slt i32 %11, %14
  br i1 %15, label %16, label %27

16:                                               ; preds = %10
  %17 = load ptr, ptr %5, align 8, !tbaa !9
  %18 = load ptr, ptr %6, align 8, !tbaa !69
  %19 = call ptr @ossl_check_const_X509_sk_type(ptr noundef %18)
  %20 = load i32, ptr %9, align 4, !tbaa !25
  %21 = call ptr @OPENSSL_sk_value(ptr noundef %19, i32 noundef %20)
  %22 = load i32, ptr %7, align 4, !tbaa !25
  %23 = load ptr, ptr %8, align 8, !tbaa !90
  call void @warn_cert(ptr noundef %17, ptr noundef %21, i32 noundef %22, ptr noundef %23)
  br label %24

24:                                               ; preds = %16
  %25 = load i32, ptr %9, align 4, !tbaa !25
  %26 = add nsw i32 %25, 1
  store i32 %26, ptr %9, align 4, !tbaa !25
  br label %10, !llvm.loop !92

27:                                               ; preds = %10
  call void @llvm.lifetime.end.p0(i64 4, ptr %9) #12
  ret void
}

; Function Attrs: nounwind uwtable
define dso_local void @clear_free(ptr noundef %0) #0 {
  %2 = alloca ptr, align 8
  store ptr %0, ptr %2, align 8, !tbaa !9
  %3 = load ptr, ptr %2, align 8, !tbaa !9
  %4 = icmp ne ptr %3, null
  br i1 %4, label %5, label %9

5:                                                ; preds = %1
  %6 = load ptr, ptr %2, align 8, !tbaa !9
  %7 = load ptr, ptr %2, align 8, !tbaa !9
  %8 = call i64 @strlen(ptr noundef %7) #14
  call void @CRYPTO_clear_free(ptr noundef %6, i64 noundef %8, ptr noundef @.str.1, i32 noundef 602)
  br label %9

9:                                                ; preds = %5, %1
  ret void
}

; Function Attrs: nounwind uwtable
define dso_local ptr @get_passwd(ptr noundef %0, ptr noundef %1) #0 {
  %3 = alloca ptr, align 8
  %4 = alloca ptr, align 8
  %5 = alloca ptr, align 8
  store ptr %0, ptr %3, align 8, !tbaa !9
  store ptr %1, ptr %4, align 8, !tbaa !9
  call void @llvm.lifetime.start.p0(i64 8, ptr %5) #12
  store ptr null, ptr %5, align 8, !tbaa !9
  %6 = load ptr, ptr %4, align 8, !tbaa !9
  %7 = icmp eq ptr %6, null
  br i1 %7, label %8, label %9

8:                                                ; preds = %2
  store ptr @.str.4, ptr %4, align 8, !tbaa !9
  br label %9

9:                                                ; preds = %8, %2
  %10 = load ptr, ptr %3, align 8, !tbaa !9
  %11 = call i32 @app_passwd(ptr noundef %10, ptr noundef null, ptr noundef %5, ptr noundef null)
  %12 = icmp ne i32 %11, 0
  br i1 %12, label %17, label %13

13:                                               ; preds = %9
  %14 = load ptr, ptr @bio_err, align 8, !tbaa !35
  %15 = load ptr, ptr %4, align 8, !tbaa !9
  %16 = call i32 (ptr, ptr, ...) @BIO_printf(ptr noundef %14, ptr noundef @.str.5, ptr noundef %15)
  br label %17

17:                                               ; preds = %13, %9
  %18 = load ptr, ptr %3, align 8, !tbaa !9
  %19 = icmp ne ptr %18, null
  br i1 %19, label %20, label %35

20:                                               ; preds = %17
  %21 = load ptr, ptr %5, align 8, !tbaa !9
  %22 = icmp eq ptr %21, null
  br i1 %22, label %23, label %35

23:                                               ; preds = %20
  %24 = load ptr, ptr @bio_err, align 8, !tbaa !35
  %25 = call i32 (ptr, ptr, ...) @BIO_printf(ptr noundef %24, ptr noundef @.str.6)
  %26 = load ptr, ptr %3, align 8, !tbaa !9
  %27 = call noalias ptr @CRYPTO_strdup(ptr noundef %26, ptr noundef @.str.1, i32 noundef 222)
  store ptr %27, ptr %5, align 8, !tbaa !9
  %28 = load ptr, ptr %5, align 8, !tbaa !9
  %29 = icmp eq ptr %28, null
  br i1 %29, label %30, label %34

30:                                               ; preds = %23
  %31 = load ptr, ptr @bio_err, align 8, !tbaa !35
  %32 = load ptr, ptr %4, align 8, !tbaa !9
  %33 = call i32 (ptr, ptr, ...) @BIO_printf(ptr noundef %31, ptr noundef @.str.7, ptr noundef %32)
  br label %34

34:                                               ; preds = %30, %23
  br label %35

35:                                               ; preds = %34, %20, %17
  %36 = load ptr, ptr %5, align 8, !tbaa !9
  call void @llvm.lifetime.end.p0(i64 8, ptr %5) #12
  ret ptr %36
}

; Function Attrs: nounwind uwtable
define dso_local i32 @load_cert_certs(ptr noundef %0, ptr noundef %1, ptr noundef %2, i32 noundef %3, ptr noundef %4, ptr noundef %5, ptr noundef %6) #0 {
  %8 = alloca i32, align 4
  %9 = alloca ptr, align 8
  %10 = alloca ptr, align 8
  %11 = alloca ptr, align 8
  %12 = alloca i32, align 4
  %13 = alloca ptr, align 8
  %14 = alloca ptr, align 8
  %15 = alloca ptr, align 8
  %16 = alloca i32, align 4
  %17 = alloca ptr, align 8
  %18 = alloca i32, align 4
  store ptr %0, ptr %9, align 8, !tbaa !9
  store ptr %1, ptr %10, align 8, !tbaa !53
  store ptr %2, ptr %11, align 8, !tbaa !55
  store i32 %3, ptr %12, align 4, !tbaa !25
  store ptr %4, ptr %13, align 8, !tbaa !9
  store ptr %5, ptr %14, align 8, !tbaa !9
  store ptr %6, ptr %15, align 8, !tbaa !90
  call void @llvm.lifetime.start.p0(i64 4, ptr %16) #12
  store i32 0, ptr %16, align 4, !tbaa !25
  call void @llvm.lifetime.start.p0(i64 8, ptr %17) #12
  %19 = load ptr, ptr %14, align 8, !tbaa !9
  %20 = icmp eq ptr %19, null
  br i1 %20, label %21, label %25

21:                                               ; preds = %7
  %22 = load ptr, ptr %11, align 8, !tbaa !55
  %23 = icmp eq ptr %22, null
  %24 = select i1 %23, ptr @.str.18, ptr @.str.33
  store ptr %24, ptr %14, align 8, !tbaa !9
  br label %25

25:                                               ; preds = %21, %7
  %26 = load i32, ptr %12, align 4, !tbaa !25
  %27 = icmp ne i32 %26, 0
  br i1 %27, label %28, label %41

28:                                               ; preds = %25
  %29 = load ptr, ptr %9, align 8, !tbaa !9
  %30 = call i32 @OPENSSL_strncasecmp(ptr noundef %29, ptr noundef @.str.21, i64 noundef 7)
  %31 = icmp eq i32 %30, 0
  br i1 %31, label %36, label %32

32:                                               ; preds = %28
  %33 = load ptr, ptr %9, align 8, !tbaa !9
  %34 = call i32 @OPENSSL_strncasecmp(ptr noundef %33, ptr noundef @.str.19, i64 noundef 8)
  %35 = icmp eq i32 %34, 0
  br i1 %35, label %36, label %41

36:                                               ; preds = %32, %28
  %37 = load ptr, ptr @bio_err, align 8, !tbaa !35
  %38 = load ptr, ptr %14, align 8, !tbaa !9
  %39 = call i32 (ptr, ptr, ...) @BIO_printf(ptr noundef %37, ptr noundef @.str.34, ptr noundef %38)
  %40 = load i32, ptr %16, align 4, !tbaa !25
  store i32 %40, ptr %8, align 4
  store i32 1, ptr %18, align 4
  br label %81

41:                                               ; preds = %32, %25
  %42 = load ptr, ptr %13, align 8, !tbaa !9
  %43 = load ptr, ptr %14, align 8, !tbaa !9
  %44 = call ptr @get_passwd(ptr noundef %42, ptr noundef %43)
  store ptr %44, ptr %17, align 8, !tbaa !9
  %45 = load ptr, ptr %9, align 8, !tbaa !9
  %46 = load ptr, ptr %17, align 8, !tbaa !9
  %47 = load ptr, ptr %14, align 8, !tbaa !9
  %48 = load ptr, ptr %10, align 8, !tbaa !53
  %49 = load ptr, ptr %11, align 8, !tbaa !55
  %50 = call i32 @load_key_certs_crls(ptr noundef %45, i32 noundef 0, i32 noundef 0, ptr noundef %46, ptr noundef %47, i32 noundef 0, ptr noundef null, ptr noundef null, ptr noundef null, ptr noundef %48, ptr noundef %49, ptr noundef null, ptr noundef null)
  store i32 %50, ptr %16, align 4, !tbaa !25
  %51 = load ptr, ptr %17, align 8, !tbaa !9
  call void @clear_free(ptr noundef %51)
  %52 = load i32, ptr %16, align 4, !tbaa !25
  %53 = icmp ne i32 %52, 0
  br i1 %53, label %54, label %71

54:                                               ; preds = %41
  %55 = load ptr, ptr %10, align 8, !tbaa !53
  %56 = icmp ne ptr %55, null
  br i1 %56, label %57, label %62

57:                                               ; preds = %54
  %58 = load ptr, ptr %9, align 8, !tbaa !9
  %59 = load ptr, ptr %10, align 8, !tbaa !53
  %60 = load ptr, ptr %59, align 8, !tbaa !37
  %61 = load ptr, ptr %15, align 8, !tbaa !90
  call void @warn_cert(ptr noundef %58, ptr noundef %60, i32 noundef 0, ptr noundef %61)
  br label %62

62:                                               ; preds = %57, %54
  %63 = load ptr, ptr %11, align 8, !tbaa !55
  %64 = icmp ne ptr %63, null
  br i1 %64, label %65, label %70

65:                                               ; preds = %62
  %66 = load ptr, ptr %9, align 8, !tbaa !9
  %67 = load ptr, ptr %11, align 8, !tbaa !55
  %68 = load ptr, ptr %67, align 8, !tbaa !69
  %69 = load ptr, ptr %15, align 8, !tbaa !90
  call void @warn_certs(ptr noundef %66, ptr noundef %68, i32 noundef 1, ptr noundef %69)
  br label %70

70:                                               ; preds = %65, %62
  br label %79

71:                                               ; preds = %41
  %72 = load ptr, ptr %11, align 8, !tbaa !55
  %73 = icmp ne ptr %72, null
  br i1 %73, label %74, label %78

74:                                               ; preds = %71
  %75 = load ptr, ptr %11, align 8, !tbaa !55
  %76 = load ptr, ptr %75, align 8, !tbaa !69
  call void @OSSL_STACK_OF_X509_free(ptr noundef %76)
  %77 = load ptr, ptr %11, align 8, !tbaa !55
  store ptr null, ptr %77, align 8, !tbaa !69
  br label %78

78:                                               ; preds = %74, %71
  br label %79

79:                                               ; preds = %78, %70
  %80 = load i32, ptr %16, align 4, !tbaa !25
  store i32 %80, ptr %8, align 4
  store i32 1, ptr %18, align 4
  br label %81

81:                                               ; preds = %79, %36
  call void @llvm.lifetime.end.p0(i64 8, ptr %17) #12
  call void @llvm.lifetime.end.p0(i64 4, ptr %16) #12
  %82 = load i32, ptr %8, align 4
  ret i32 %82
}