; Function Attrs: nounwind uwtable
define dso_local range(i32 0, 2) i32 @load_cert_certs(ptr noundef %0, ptr noundef captures(address) %1, ptr noundef captures(address_is_null) %2, i32 noundef %3, ptr noundef %4, ptr noundef %5, ptr noundef %6) local_unnamed_addr #0 {
  %8 = icmp eq ptr %5, null
  %9 = icmp eq ptr %2, null
  %10 = select i1 %9, ptr @.str.18, ptr @.str.33
  %.028 = select i1 %8, ptr %10, ptr %5
  %.not = icmp eq i32 %3, 0
  br i1 %.not, label %20, label %11

11:                                               ; preds = %7
  %12 = tail call i32 @OPENSSL_strncasecmp(ptr noundef %0, ptr noundef nonnull @.str.21, i64 noundef 7) #27
  %13 = icmp eq i32 %12, 0
  br i1 %13, label %17, label %14

14:                                               ; preds = %11
  %15 = tail call i32 @OPENSSL_strncasecmp(ptr noundef %0, ptr noundef nonnull @.str.19, i64 noundef 8) #27
  %16 = icmp eq i32 %15, 0
  br i1 %16, label %17, label %20

17:                                               ; preds = %14, %11
  %18 = load ptr, ptr @bio_err, align 8, !tbaa !26
  %19 = tail call i32 (ptr, ptr, ...) @BIO_printf(ptr noundef %18, ptr noundef nonnull @.str.34, ptr noundef nonnull %.028) #27
  br label %warn_certs.exit

20:                                               ; preds = %14, %7
  %.not.i = icmp eq ptr %4, null
  br i1 %.not.i, label %get_passwd.exit.thread, label %21

21:                                               ; preds = %20
  %22 = tail call fastcc ptr @app_get_pass(ptr noundef %4, i32 noundef 0)
  %23 = icmp eq ptr %22, null
  br i1 %23, label %app_passwd.exit.thread.i, label %34

app_passwd.exit.thread.i:                         ; preds = %21
  %24 = load ptr, ptr @bio_err, align 8, !tbaa !26
  %25 = tail call i32 (ptr, ptr, ...) @BIO_printf(ptr noundef %24, ptr noundef nonnull @.str.5, ptr noundef nonnull %.028) #27
  %26 = load ptr, ptr @bio_err, align 8, !tbaa !26
  %27 = tail call i32 (ptr, ptr, ...) @BIO_printf(ptr noundef %26, ptr noundef nonnull @.str.6) #27
  %28 = tail call noalias ptr @CRYPTO_strdup(ptr noundef nonnull %4, ptr noundef nonnull @.str.1, i32 noundef 222) #27
  %29 = icmp eq ptr %28, null
  br i1 %29, label %30, label %34

30:                                               ; preds = %app_passwd.exit.thread.i
  %31 = load ptr, ptr @bio_err, align 8, !tbaa !26
  %32 = tail call i32 (ptr, ptr, ...) @BIO_printf(ptr noundef %31, ptr noundef nonnull @.str.7, ptr noundef nonnull %.028) #27
  br label %get_passwd.exit.thread

get_passwd.exit.thread:                           ; preds = %30, %20
  %33 = tail call i32 @load_key_certs_crls(ptr noundef %0, i32 noundef 0, i32 noundef 0, ptr noundef null, ptr noundef nonnull %.028, i32 noundef 0, ptr noundef null, ptr noundef null, ptr noundef null, ptr noundef %1, ptr noundef %2, ptr noundef null, ptr noundef null)
  br label %clear_free.exit

34:                                               ; preds = %app_passwd.exit.thread.i, %21
  %.0.i = phi ptr [ %28, %app_passwd.exit.thread.i ], [ %22, %21 ]
  %35 = tail call i32 @load_key_certs_crls(ptr noundef %0, i32 noundef 0, i32 noundef 0, ptr noundef nonnull %.0.i, ptr noundef nonnull %.028, i32 noundef 0, ptr noundef null, ptr noundef null, ptr noundef null, ptr noundef %1, ptr noundef %2, ptr noundef null, ptr noundef null)
  %36 = tail call i64 @strlen(ptr noundef nonnull dereferenceable(1) %.0.i) #29
  tail call void @CRYPTO_clear_free(ptr noundef nonnull %.0.i, i64 noundef %36, ptr noundef nonnull @.str.1, i32 noundef 602) #27
  br label %clear_free.exit

clear_free.exit:                                  ; preds = %get_passwd.exit.thread, %34
  %37 = phi i32 [ %33, %get_passwd.exit.thread ], [ %35, %34 ]
  %.not32 = icmp eq i32 %37, 0
  br i1 %.not32, label %50, label %38

38:                                               ; preds = %clear_free.exit
  %.not34 = icmp eq ptr %1, null
  br i1 %.not34, label %41, label %39

39:                                               ; preds = %38
  %40 = load ptr, ptr %1, align 8, !tbaa !35
  tail call fastcc void @warn_cert(ptr noundef %0, ptr noundef %40, i32 noundef 0, ptr noundef %6)
  br label %41

41:                                               ; preds = %39, %38
  br i1 %9, label %warn_certs.exit, label %42

42:                                               ; preds = %41
  %43 = load ptr, ptr %2, align 8, !tbaa !39
  %44 = tail call i32 @OPENSSL_sk_num(ptr noundef %43) #27
  %45 = icmp sgt i32 %44, 0
  br i1 %45, label %.lr.ph.i, label %warn_certs.exit

.lr.ph.i:                                         ; preds = %42, %.lr.ph.i
  %.07.i = phi i32 [ %47, %.lr.ph.i ], [ 0, %42 ]
  %46 = tail call ptr @OPENSSL_sk_value(ptr noundef %43, i32 noundef %.07.i) #27
  tail call fastcc void @warn_cert(ptr noundef %0, ptr noundef %46, i32 noundef 1, ptr noundef %6)
  %47 = add nuw nsw i32 %.07.i, 1
  %48 = tail call i32 @OPENSSL_sk_num(ptr noundef %43) #27
  %49 = icmp slt i32 %47, %48
  br i1 %49, label %.lr.ph.i, label %warn_certs.exit, !llvm.loop !54

50:                                               ; preds = %clear_free.exit
  br i1 %9, label %warn_certs.exit, label %51

51:                                               ; preds = %50
  %52 = load ptr, ptr %2, align 8, !tbaa !39
  tail call void @OSSL_STACK_OF_X509_free(ptr noundef %52) #27
  store ptr null, ptr %2, align 8, !tbaa !39
  br label %warn_certs.exit

warn_certs.exit:                                  ; preds = %.lr.ph.i, %42, %41, %51, %50, %17
  %.0 = phi i32 [ 0, %17 ], [ 0, %50 ], [ 0, %51 ], [ 1, %41 ], [ 1, %42 ], [ %37, %.lr.ph.i ]
  ret i32 %.0
}